target datalayout = "e-m:e-p270:32:32-p271:32:32-p272:64:64-i64:64-i128:128-f80:128-n8:16:32:64-S128"
target triple = "x86_64-pc-linux-gnu"

@.str.16 = private unnamed_addr constant [41 x i8] c"BUG: Unable to fetch CJSON configuration\00", align 1
@.str.93 = private unnamed_addr constant [25 x i8] c"found too many arguments\00", align 1

; Function Attrs: nounwind uwtable
define internal ptr @json_fetch_config(ptr noundef %0) #0 {
  %2 = alloca ptr, align 8
  %3 = alloca ptr, align 8
  store ptr %0, ptr %2, align 8, !tbaa !4
  call void @llvm.lifetime.start.p0(i64 8, ptr %3) #9
  %4 = load ptr, ptr %2, align 8, !tbaa !4
  %5 = call ptr @lua_touserdata(ptr noundef %4, i32 noundef -10003)
  store ptr %5, ptr %3, align 8, !tbaa !15
  %6 = load ptr, ptr %3, align 8, !tbaa !15
  %7 = icmp ne ptr %6, null
  br i1 %7, label %11, label %8

8:                                                ; preds = %1
  %9 = load ptr, ptr %2, align 8, !tbaa !4
  %10 = call i32 (ptr, ptr, ...) @luaL_error(ptr noundef %9, ptr noundef @.str.16)
  br label %11

11:                                               ; preds = %8, %1
  %12 = load ptr, ptr %3, align 8, !tbaa !15
  call void @llvm.lifetime.end.p0(i64 8, ptr %3) #9
  ret ptr %12
}

; Function Attrs: nounwind uwtable
define internal ptr @json_arg_init(ptr noundef %0, i32 noundef %1) #0 {
  %3 = alloca ptr, align 8
  %4 = alloca i32, align 4
  store ptr %0, ptr %3, align 8, !tbaa !4
  store i32 %1, ptr %4, align 4, !tbaa !9
  %5 = load ptr, ptr %3, align 8, !tbaa !4
  %6 = call i32 @lua_gettop(ptr noundef %5)
  %7 = load i32, ptr %4, align 4, !tbaa !9
  %8 = icmp sle i32 %6, %7
  br i1 %8, label %14, label %9

9:                                                ; preds = %2
  %10 = load ptr, ptr %3, align 8, !tbaa !4
  %11 = load i32, ptr %4, align 4, !tbaa !9
  %12 = add nsw i32 %11, 1
  %13 = call i32 @luaL_argerror(ptr noundef %10, i32 noundef %12, ptr noundef @.str.93)
  br label %14

14:                                               ; preds = %9, %2
  br label %15

15:                                               ; preds = %20, %14
  %16 = load ptr, ptr %3, align 8, !tbaa !4
  %17 = call i32 @lua_gettop(ptr noundef %16)
  %18 = load i32, ptr %4, align 4, !tbaa !9
  %19 = icmp slt i32 %17, %18
  br i1 %19, label %20, label %22

20:                                               ; preds = %15
  %21 = load ptr, ptr %3, align 8, !tbaa !4
  call void @lua_pushnil(ptr noundef %21)
  br label %15, !llvm.loop !63

22:                                               ; preds = %15
  %23 = load ptr, ptr %3, align 8, !tbaa !4
  %24 = call ptr @json_fetch_config(ptr noundef %23)
  ret ptr %24
}