; Function Attrs: nounwind uwtable
define internal fastcc ptr @json_arg_init(ptr noundef %0, i32 noundef range(i32 1, 4) %1) unnamed_addr #0 {
  %3 = tail call i32 @lua_gettop(ptr noundef %0) #12
  %.not = icmp sgt i32 %3, %1
  br i1 %.not, label %4, label %7

4:                                                ; preds = %2
  %5 = add nuw nsw i32 %1, 1
  %6 = tail call i32 @luaL_argerror(ptr noundef %0, i32 noundef %5, ptr noundef nonnull @.str.93) #12
  br label %7

7:                                                ; preds = %4, %2
  %8 = tail call i32 @lua_gettop(ptr noundef %0) #12
  %9 = icmp slt i32 %8, %1
  br i1 %9, label %.lr.ph, label %._crit_edge

.lr.ph:                                           ; preds = %7, %.lr.ph
  tail call void @lua_pushnil(ptr noundef %0) #12
  %10 = tail call i32 @lua_gettop(ptr noundef %0) #12
  %11 = icmp slt i32 %10, %1
  br i1 %11, label %.lr.ph, label %._crit_edge, !llvm.loop !52

._crit_edge:                                      ; preds = %.lr.ph, %7
  %12 = tail call ptr @lua_touserdata(ptr noundef %0, i32 noundef -10003) #12
  %.not.i = icmp eq ptr %12, null
  br i1 %.not.i, label %13, label %json_fetch_config.exit

13:                                               ; preds = %._crit_edge
  %14 = tail call i32 (ptr, ptr, ...) @luaL_error(ptr noundef %0, ptr noundef nonnull @.str.16) #12
  br label %json_fetch_config.exit

json_fetch_config.exit:                           ; preds = %._crit_edge, %13
  ret ptr %12
}